target datalayout = "e-m:e-p270:32:32-p271:32:32-p272:64:64-i64:64-i128:128-f80:128-n8:16:32:64-S128"
target triple = "x86_64-pc-linux-gnu"

%struct.AVChannelLayout = type { i32, i32, %union.anon.1, ptr }
%union.anon.1 = type { i64 }
%struct.AVFilterContext = type { ptr, ptr, ptr, ptr, ptr, i32, ptr, ptr, i32, ptr, ptr, i32, i32, ptr, ptr, ptr, ptr, i32, ptr, i32, i32 }
%struct.SincContext = type { ptr, i32, i32, float, float, float, float, float, float, float, [2 x i32], i32, i32, i32, ptr, i64, ptr, ptr, ptr, ptr }
%struct.AVFrame = type { [8 x ptr], [8 x i32], ptr, i32, i32, i32, i32, i32, %struct.AVRational, i64, i64, %struct.AVRational, i32, ptr, i32, i32, [8 x ptr], ptr, i32, ptr, i32, i32, i32, i32, i32, i32, i32, i64, ptr, i32, ptr, ptr, i64, i64, i64, i64, ptr, %struct.AVChannelLayout, i64 }
%struct.AVRational = type { i32, i32 }

; Function Attrs: inlinehint nounwind uwtable
define internal void @ff_outlink_set_status(ptr noundef %0, i32 noundef %1, i64 noundef %2) #8 {
  %4 = alloca ptr, align 8
  %5 = alloca i32, align 4
  %6 = alloca i64, align 8
  store ptr %0, ptr %4, align 8, !tbaa !34
  store i32 %1, ptr %5, align 4, !tbaa !32
  store i64 %2, ptr %6, align 8, !tbaa !92
  %7 = load ptr, ptr %4, align 8, !tbaa !34
  %8 = load i32, ptr %5, align 4, !tbaa !32
  %9 = load i64, ptr %6, align 8, !tbaa !92
  call void @ff_avfilter_link_set_in_status(ptr noundef %7, i32 noundef %8, i64 noundef %9)
  ret void
}

; Function Attrs: nounwind uwtable
define internal i32 @activate(ptr noundef %0) #1 {
  %2 = alloca i32, align 4
  %3 = alloca ptr, align 8
  %4 = alloca ptr, align 8
  %5 = alloca ptr, align 8
  %6 = alloca ptr, align 8
  %7 = alloca ptr, align 8
  %8 = alloca i32, align 4
  %9 = alloca i32, align 4
  store ptr %0, ptr %3, align 8, !tbaa !4
  call void @llvm.lifetime.start.p0(i64 8, ptr %4) #9
  %10 = load ptr, ptr %3, align 8, !tbaa !4
  %11 = getelementptr inbounds nuw %struct.AVFilterContext, ptr %10, i32 0, i32 7
  %12 = load ptr, ptr %11, align 8, !tbaa !33
  %13 = getelementptr inbounds ptr, ptr %12, i64 0
  %14 = load ptr, ptr %13, align 8, !tbaa !34
  store ptr %14, ptr %4, align 8, !tbaa !34
  call void @llvm.lifetime.start.p0(i64 8, ptr %5) #9
  %15 = load ptr, ptr %3, align 8, !tbaa !4
  %16 = getelementptr inbounds nuw %struct.AVFilterContext, ptr %15, i32 0, i32 9
  %17 = load ptr, ptr %16, align 8, !tbaa !9
  store ptr %17, ptr %5, align 8, !tbaa !22
  call void @llvm.lifetime.start.p0(i64 8, ptr %6) #9
  %18 = load ptr, ptr %5, align 8, !tbaa !22
  %19 = getelementptr inbounds nuw %struct.SincContext, ptr %18, i32 0, i32 14
  %20 = load ptr, ptr %19, align 8, !tbaa !36
  store ptr %20, ptr %6, align 8, !tbaa !37
  call void @llvm.lifetime.start.p0(i64 8, ptr %7) #9
  store ptr null, ptr %7, align 8, !tbaa !38
  call void @llvm.lifetime.start.p0(i64 4, ptr %8) #9
  %21 = load ptr, ptr %4, align 8, !tbaa !34
  %22 = call i32 @ff_outlink_frame_wanted(ptr noundef %21)
  %23 = icmp ne i32 %22, 0
  br i1 %23, label %25, label %24

24:                                               ; preds = %1
  store i32 -1497649742, ptr %2, align 4
  store i32 1, ptr %9, align 4
  br label %96

25:                                               ; preds = %1
  %26 = load ptr, ptr %5, align 8, !tbaa !22
  %27 = getelementptr inbounds nuw %struct.SincContext, ptr %26, i32 0, i32 2
  %28 = load i32, ptr %27, align 4, !tbaa !40
  %29 = sext i32 %28 to i64
  %30 = load ptr, ptr %5, align 8, !tbaa !22
  %31 = getelementptr inbounds nuw %struct.SincContext, ptr %30, i32 0, i32 12
  %32 = load i32, ptr %31, align 8, !tbaa !41
  %33 = sext i32 %32 to i64
  %34 = load ptr, ptr %5, align 8, !tbaa !22
  %35 = getelementptr inbounds nuw %struct.SincContext, ptr %34, i32 0, i32 15
  %36 = load i64, ptr %35, align 8, !tbaa !42
  %37 = sub nsw i64 %33, %36
  %38 = icmp sgt i64 %29, %37
  br i1 %38, label %39, label %48

39:                                               ; preds = %25
  %40 = load ptr, ptr %5, align 8, !tbaa !22
  %41 = getelementptr inbounds nuw %struct.SincContext, ptr %40, i32 0, i32 12
  %42 = load i32, ptr %41, align 8, !tbaa !41
  %43 = sext i32 %42 to i64
  %44 = load ptr, ptr %5, align 8, !tbaa !22
  %45 = getelementptr inbounds nuw %struct.SincContext, ptr %44, i32 0, i32 15
  %46 = load i64, ptr %45, align 8, !tbaa !42
  %47 = sub nsw i64 %43, %46
  br label %53

48:                                               ; preds = %25
  %49 = load ptr, ptr %5, align 8, !tbaa !22
  %50 = getelementptr inbounds nuw %struct.SincContext, ptr %49, i32 0, i32 2
  %51 = load i32, ptr %50, align 4, !tbaa !40
  %52 = sext i32 %51 to i64
  br label %53

53:                                               ; preds = %48, %39
  %54 = phi i64 [ %47, %39 ], [ %52, %48 ]
  %55 = trunc i64 %54 to i32
  store i32 %55, ptr %8, align 4, !tbaa !32
  %56 = load i32, ptr %8, align 4, !tbaa !32
  %57 = icmp sle i32 %56, 0
  br i1 %57, label %58, label %63

58:                                               ; preds = %53
  %59 = load ptr, ptr %4, align 8, !tbaa !34
  %60 = load ptr, ptr %5, align 8, !tbaa !22
  %61 = getelementptr inbounds nuw %struct.SincContext, ptr %60, i32 0, i32 15
  %62 = load i64, ptr %61, align 8, !tbaa !42
  call void @ff_outlink_set_status(ptr noundef %59, i32 noundef -541478725, i64 noundef %62)
  store i32 0, ptr %2, align 4
  store i32 1, ptr %9, align 4
  br label %96

63:                                               ; preds = %53
  %64 = load ptr, ptr %4, align 8, !tbaa !34
  %65 = load i32, ptr %8, align 4, !tbaa !32
  %66 = call ptr @ff_get_audio_buffer(ptr noundef %64, i32 noundef %65)
  store ptr %66, ptr %7, align 8, !tbaa !38
  %67 = icmp ne ptr %66, null
  br i1 %67, label %69, label %68

68:                                               ; preds = %63
  store i32 -12, ptr %2, align 4
  store i32 1, ptr %9, align 4
  br label %96

69:                                               ; preds = %63
  %70 = load ptr, ptr %7, align 8, !tbaa !38
  %71 = getelementptr inbounds nuw %struct.AVFrame, ptr %70, i32 0, i32 0
  %72 = getelementptr inbounds [8 x ptr], ptr %71, i64 0, i64 0
  %73 = load ptr, ptr %72, align 8, !tbaa !43
  %74 = load ptr, ptr %6, align 8, !tbaa !37
  %75 = load ptr, ptr %5, align 8, !tbaa !22
  %76 = getelementptr inbounds nuw %struct.SincContext, ptr %75, i32 0, i32 15
  %77 = load i64, ptr %76, align 8, !tbaa !42
  %78 = getelementptr inbounds float, ptr %74, i64 %77
  %79 = load i32, ptr %8, align 4, !tbaa !32
  %80 = sext i32 %79 to i64
  %81 = mul i64 %80, 4
  call void @llvm.memcpy.p0.p0.i64(ptr align 1 %73, ptr align 4 %78, i64 %81, i1 false)
  %82 = load ptr, ptr %5, align 8, !tbaa !22
  %83 = getelementptr inbounds nuw %struct.SincContext, ptr %82, i32 0, i32 15
  %84 = load i64, ptr %83, align 8, !tbaa !42
  %85 = load ptr, ptr %7, align 8, !tbaa !38
  %86 = getelementptr inbounds nuw %struct.AVFrame, ptr %85, i32 0, i32 9
  store i64 %84, ptr %86, align 8, !tbaa !44
  %87 = load i32, ptr %8, align 4, !tbaa !32
  %88 = sext i32 %87 to i64
  %89 = load ptr, ptr %5, align 8, !tbaa !22
  %90 = getelementptr inbounds nuw %struct.SincContext, ptr %89, i32 0, i32 15
  %91 = load i64, ptr %90, align 8, !tbaa !42
  %92 = add nsw i64 %91, %88
  store i64 %92, ptr %90, align 8, !tbaa !42
  %93 = load ptr, ptr %4, align 8, !tbaa !34
  %94 = load ptr, ptr %7, align 8, !tbaa !38
  %95 = call i32 @ff_filter_frame(ptr noundef %93, ptr noundef %94)
  store i32 %95, ptr %2, align 4
  store i32 1, ptr %9, align 4
  br label %96

96:                                               ; preds = %69, %68, %58, %24
  call void @llvm.lifetime.end.p0(i64 4, ptr %8) #9
  call void @llvm.lifetime.end.p0(i64 8, ptr %7) #9
  call void @llvm.lifetime.end.p0(i64 8, ptr %6) #9
  call void @llvm.lifetime.end.p0(i64 8, ptr %5) #9
  call void @llvm.lifetime.end.p0(i64 8, ptr %4) #9
  %97 = load i32, ptr %2, align 4
  ret i32 %97
}