; Function Attrs: nounwind uwtable
define internal i32 @activate(ptr noundef readonly captures(none) %0) #1 {
  %2 = getelementptr inbounds nuw i8, ptr %0, i64 56
  %3 = load ptr, ptr %2, align 8, !tbaa !27
  %4 = load ptr, ptr %3, align 8, !tbaa !28
  %5 = getelementptr inbounds nuw i8, ptr %0, i64 72
  %6 = load ptr, ptr %5, align 8, !tbaa !4
  %7 = getelementptr inbounds nuw i8, ptr %6, i64 64
  %8 = load ptr, ptr %7, align 8, !tbaa !30
  %9 = tail call i32 @ff_outlink_frame_wanted(ptr noundef %4) #8
  %.not = icmp eq i32 %9, 0
  br i1 %.not, label %36, label %10

10:                                               ; preds = %1
  %11 = getelementptr inbounds nuw i8, ptr %6, i64 12
  %12 = load i32, ptr %11, align 4, !tbaa !31
  %13 = sext i32 %12 to i64
  %14 = getelementptr inbounds nuw i8, ptr %6, i64 56
  %15 = load i32, ptr %14, align 8, !tbaa !32
  %16 = sext i32 %15 to i64
  %17 = getelementptr inbounds nuw i8, ptr %6, i64 72
  %18 = load i64, ptr %17, align 8, !tbaa !33
  %19 = sub nsw i64 %16, %18
  %20 = tail call i64 @llvm.smin.i64(i64 %19, i64 %13)
  %21 = trunc i64 %20 to i32
  %22 = icmp slt i32 %21, 1
  br i1 %22, label %23, label %24

23:                                               ; preds = %10
  tail call void @ff_avfilter_link_set_in_status(ptr noundef %4, i32 noundef -541478725, i64 noundef %18) #8
  br label %36

24:                                               ; preds = %10
  %25 = tail call ptr @ff_get_audio_buffer(ptr noundef %4, i32 noundef %21) #8
  %.not29 = icmp eq ptr %25, null
  br i1 %.not29, label %36, label %26

26:                                               ; preds = %24
  %27 = load ptr, ptr %25, align 8, !tbaa !34
  %28 = load i64, ptr %17, align 8, !tbaa !33
  %29 = getelementptr inbounds float, ptr %8, i64 %28
  %30 = and i64 %20, 2147483647
  %31 = shl nuw nsw i64 %30, 2
  tail call void @llvm.memcpy.p0.p0.i64(ptr align 1 %27, ptr align 4 %29, i64 %31, i1 false)
  %32 = load i64, ptr %17, align 8, !tbaa !33
  %33 = getelementptr inbounds nuw i8, ptr %25, i64 136
  store i64 %32, ptr %33, align 8, !tbaa !35
  %34 = add nsw i64 %32, %30
  store i64 %34, ptr %17, align 8, !tbaa !33
  %35 = tail call i32 @ff_filter_frame(ptr noundef %4, ptr noundef nonnull %25) #8
  br label %36

36:                                               ; preds = %24, %1, %26, %23
  %.0 = phi i32 [ 0, %23 ], [ %35, %26 ], [ -1497649742, %1 ], [ -12, %24 ]
  ret i32 %.0
}